(dp0
S'good'
p1
F0.7
sS'\\happy'
p2
F10.0
sS'tensed'
p3
F-0.67
sS'very'
p4
S'x1'
p5
sS'fine'
p6
F0.25
sS'angry'
p7
F-1.0
sS'absolutely'
p8
S'x1'
p9
sS'feel'
p10
F0.0
sS'hello'
p11
F8.0
sS'anxious'
p12
F0.0
sS'fucking'
p13
S'x1'
p14
sS'bad'
p15
F-0.5
sS'not'
p16
S'x-1'
p17
sS'moody'
p18
F0.34
sS'sad'
p19
F-0.34
sS'chill'
p20
F1.0
sS'excited'
p21
F0.67
sS'pissed'
p22
F-1.0
sS'happy'
p23
F1.0
s.